target datalayout = "e-m:e-p270:32:32-p271:32:32-p272:64:64-i64:64-i128:128-f80:128-n8:16:32:64-S128"
target triple = "x86_64-unknown-linux-gnu"

%"class.icu_75::MeasureFormatCacheData" = type { %"class.icu_75::SharedObject", [3 x i32], [3 x ptr], ptr, ptr }
%"class.icu_75::SharedObject" = type { %"class.icu_75::UObject", i32, %"struct.std::atomic", ptr }
%"class.icu_75::UObject" = type { ptr }
%"struct.std::atomic" = type { %"struct.std::__atomic_base" }
%"struct.std::__atomic_base" = type { i32 }
%"class.icu_75::NumericDateFormatters" = type { [8 x i8], %"class.icu_75::UnicodeString", %"class.icu_75::UnicodeString", %"class.icu_75::UnicodeString" }
%"class.icu_75::UnicodeString" = type { %"class.icu_75::Replaceable", %"union.icu_75::UnicodeString::StackBufferOrFields" }
%"class.icu_75::Replaceable" = type { %"class.icu_75::UObject" }
%"union.icu_75::UnicodeString::StackBufferOrFields" = type { %struct.anon.0, [32 x i8] }
%struct.anon.0 = type { i16, i32, i32, ptr }

@_ZTVN6icu_7522MeasureFormatCacheDataE = unnamed_addr constant { [5 x ptr] } { [5 x ptr] [ptr null, ptr @_ZTIN6icu_7522MeasureFormatCacheDataE, ptr @_ZN6icu_7522MeasureFormatCacheDataD1Ev, ptr @_ZN6icu_7522MeasureFormatCacheDataD0Ev, ptr @_ZNK6icu_757UObject17getDynamicClassIDEv] }, align 8

; Function Attrs: mustprogress nounwind uwtable
define linkonce_odr void @_ZN6icu_7521NumericDateFormattersD2Ev(ptr noundef nonnull align 8 dereferenceable(200) %this) unnamed_addr #0 comdat align 2 {
entry:
  %this.addr = alloca ptr, align 8
  store ptr %this, ptr %this.addr, align 8
  %this1 = load ptr, ptr %this.addr, align 8
  %hourMinuteSecond = getelementptr inbounds %"class.icu_75::NumericDateFormatters", ptr %this1, i32 0, i32 3
  call void @_ZN6icu_7513UnicodeStringD1Ev(ptr noundef nonnull align 8 dereferenceable(64) %hourMinuteSecond) #12
  %minuteSecond = getelementptr inbounds %"class.icu_75::NumericDateFormatters", ptr %this1, i32 0, i32 2
  call void @_ZN6icu_7513UnicodeStringD1Ev(ptr noundef nonnull align 8 dereferenceable(64) %minuteSecond) #12
  %hourMinute = getelementptr inbounds %"class.icu_75::NumericDateFormatters", ptr %this1, i32 0, i32 1
  call void @_ZN6icu_7513UnicodeStringD1Ev(ptr noundef nonnull align 8 dereferenceable(64) %hourMinute) #12
  ret void
}

; Function Attrs: mustprogress nounwind uwtable
define void @_ZN6icu_7522MeasureFormatCacheDataD2Ev(ptr noundef nonnull align 8 dereferenceable(80) %this) unnamed_addr #0 align 2 {
entry:
  %this.addr = alloca ptr, align 8
  %i = alloca i32, align 4
  store ptr %this, ptr %this.addr, align 8
  %this1 = load ptr, ptr %this.addr, align 8
  store ptr getelementptr inbounds ({ [5 x ptr] }, ptr @_ZTVN6icu_7522MeasureFormatCacheDataE, i32 0, i32 0, i32 2), ptr %this1, align 8
  store i32 0, ptr %i, align 4
  br label %for.cond

for.cond:                                         ; preds = %for.inc, %entry
  %0 = load i32, ptr %i, align 4
  %cmp = icmp slt i32 %0, 3
  br i1 %cmp, label %for.body, label %for.end

for.body:                                         ; preds = %for.cond
  %currencyFormats = getelementptr inbounds %"class.icu_75::MeasureFormatCacheData", ptr %this1, i32 0, i32 2
  %1 = load i32, ptr %i, align 4
  %idxprom = sext i32 %1 to i64
  %arrayidx = getelementptr inbounds [3 x ptr], ptr %currencyFormats, i64 0, i64 %idxprom
  %2 = load ptr, ptr %arrayidx, align 8
  %isnull = icmp eq ptr %2, null
  br i1 %isnull, label %delete.end, label %delete.notnull

delete.notnull:                                   ; preds = %for.body
  %vtable = load ptr, ptr %2, align 8
  %vfn = getelementptr inbounds ptr, ptr %vtable, i64 1
  %3 = load ptr, ptr %vfn, align 8
  call void %3(ptr noundef nonnull align 8 dereferenceable(356) %2) #12
  br label %delete.end

delete.end:                                       ; preds = %delete.notnull, %for.body
  br label %for.inc

for.inc:                                          ; preds = %delete.end
  %4 = load i32, ptr %i, align 4
  %inc = add nsw i32 %4, 1
  store i32 %inc, ptr %i, align 4
  br label %for.cond, !llvm.loop !6

for.end:                                          ; preds = %for.cond
  %integerFormat = getelementptr inbounds %"class.icu_75::MeasureFormatCacheData", ptr %this1, i32 0, i32 3
  %5 = load ptr, ptr %integerFormat, align 8
  %isnull2 = icmp eq ptr %5, null
  br i1 %isnull2, label %delete.end6, label %delete.notnull3

delete.notnull3:                                  ; preds = %for.end
  %vtable4 = load ptr, ptr %5, align 8
  %vfn5 = getelementptr inbounds ptr, ptr %vtable4, i64 1
  %6 = load ptr, ptr %vfn5, align 8
  call void %6(ptr noundef nonnull align 8 dereferenceable(356) %5) #12
  br label %delete.end6

delete.end6:                                      ; preds = %delete.notnull3, %for.end
  %numericDateFormatters = getelementptr inbounds %"class.icu_75::MeasureFormatCacheData", ptr %this1, i32 0, i32 4
  %7 = load ptr, ptr %numericDateFormatters, align 8
  %isnull7 = icmp eq ptr %7, null
  br i1 %isnull7, label %delete.end9, label %delete.notnull8

delete.notnull8:                                  ; preds = %delete.end6
  call void @_ZN6icu_7521NumericDateFormattersD2Ev(ptr noundef nonnull align 8 dereferenceable(200) %7) #12
  call void @_ZN6icu_757UMemorydlEPv(ptr noundef %7) #12
  br label %delete.end9

delete.end9:                                      ; preds = %delete.notnull8, %delete.end6
  call void @_ZN6icu_7512SharedObjectD2Ev(ptr noundef nonnull align 8 dereferenceable(24) %this1) #12
  ret void
}