; Function Attrs: mustprogress nounwind uwtable
define void @_ZN6icu_7522MeasureFormatCacheDataD2Ev(ptr noundef nonnull align 8 dereferenceable(80) %this) unnamed_addr #0 align 2 {
entry:
  store ptr getelementptr inbounds ({ [5 x ptr] }, ptr @_ZTVN6icu_7522MeasureFormatCacheDataE, i64 0, i32 0, i64 2), ptr %this, align 8
  %currencyFormats = getelementptr inbounds i8, ptr %this, i64 40
  br label %for.body

for.body:                                         ; preds = %entry, %for.inc
  %indvars.iv = phi i64 [ 0, %entry ], [ %indvars.iv.next, %for.inc ]
  %arrayidx = getelementptr inbounds [3 x ptr], ptr %currencyFormats, i64 0, i64 %indvars.iv
  %0 = load ptr, ptr %arrayidx, align 8
  %isnull = icmp eq ptr %0, null
  br i1 %isnull, label %for.inc, label %delete.notnull

delete.notnull:                                   ; preds = %for.body
  %vtable = load ptr, ptr %0, align 8
  %vfn = getelementptr inbounds i8, ptr %vtable, i64 8
  %1 = load ptr, ptr %vfn, align 8
  tail call void %1(ptr noundef nonnull align 8 dereferenceable(356) %0) #16
  br label %for.inc

for.inc:                                          ; preds = %for.body, %delete.notnull
  %indvars.iv.next = add nuw nsw i64 %indvars.iv, 1
  %exitcond.not = icmp eq i64 %indvars.iv.next, 3
  br i1 %exitcond.not, label %for.end, label %for.body, !llvm.loop !6

for.end:                                          ; preds = %for.inc
  %integerFormat = getelementptr inbounds i8, ptr %this, i64 64
  %2 = load ptr, ptr %integerFormat, align 8
  %isnull2 = icmp eq ptr %2, null
  br i1 %isnull2, label %delete.end6, label %delete.notnull3

delete.notnull3:                                  ; preds = %for.end
  %vtable4 = load ptr, ptr %2, align 8
  %vfn5 = getelementptr inbounds i8, ptr %vtable4, i64 8
  %3 = load ptr, ptr %vfn5, align 8
  tail call void %3(ptr noundef nonnull align 8 dereferenceable(356) %2) #16
  br label %delete.end6

delete.end6:                                      ; preds = %delete.notnull3, %for.end
  %numericDateFormatters = getelementptr inbounds i8, ptr %this, i64 72
  %4 = load ptr, ptr %numericDateFormatters, align 8
  %isnull7 = icmp eq ptr %4, null
  br i1 %isnull7, label %delete.end9, label %delete.notnull8

delete.notnull8:                                  ; preds = %delete.end6
  %hourMinuteSecond.i = getelementptr inbounds i8, ptr %4, i64 136
  tail call void @_ZN6icu_7513UnicodeStringD1Ev(ptr noundef nonnull align 8 dereferenceable(64) %hourMinuteSecond.i) #16
  %minuteSecond.i = getelementptr inbounds i8, ptr %4, i64 72
  tail call void @_ZN6icu_7513UnicodeStringD1Ev(ptr noundef nonnull align 8 dereferenceable(64) %minuteSecond.i) #16
  %hourMinute.i = getelementptr inbounds i8, ptr %4, i64 8
  tail call void @_ZN6icu_7513UnicodeStringD1Ev(ptr noundef nonnull align 8 dereferenceable(64) %hourMinute.i) #16
  tail call void @_ZN6icu_757UMemorydlEPv(ptr noundef nonnull %4) #16
  br label %delete.end9

delete.end9:                                      ; preds = %delete.notnull8, %delete.end6
  tail call void @_ZN6icu_7512SharedObjectD2Ev(ptr noundef nonnull align 8 dereferenceable(24) %this) #16
  ret void
}